target datalayout = "e-m:e-p270:32:32-p271:32:32-p272:64:64-i64:64-i128:128-f80:128-n8:16:32:64-S128"
target triple = "x86_64-unknown-linux-gnu"

%"class.YAML::NodeBuilder" = type { %"class.YAML::EventHandler", %"class.std::shared_ptr", ptr, %"class.std::vector", %"class.std::vector", %"class.std::vector.0", i64 }
%"class.YAML::EventHandler" = type { ptr }
%"class.std::shared_ptr" = type { %"class.std::__shared_ptr" }
%"class.std::__shared_ptr" = type { ptr, %"class.std::__shared_count" }
%"class.std::__shared_count" = type { ptr }
%"class.std::vector" = type { %"struct.std::_Vector_base" }
%"struct.std::_Vector_base" = type { %"struct.std::_Vector_base<YAML::detail::node *, std::allocator<YAML::detail::node *>>::_Vector_impl" }
%"struct.std::_Vector_base<YAML::detail::node *, std::allocator<YAML::detail::node *>>::_Vector_impl" = type { %"struct.std::_Vector_base<YAML::detail::node *, std::allocator<YAML::detail::node *>>::_Vector_impl_data" }
%"struct.std::_Vector_base<YAML::detail::node *, std::allocator<YAML::detail::node *>>::_Vector_impl_data" = type { ptr, ptr, ptr }
%"class.std::vector.0" = type { %"struct.std::_Vector_base.1" }
%"struct.std::_Vector_base.1" = type { %"struct.std::_Vector_base<std::pair<YAML::detail::node *, bool>, std::allocator<std::pair<YAML::detail::node *, bool>>>::_Vector_impl" }
%"struct.std::_Vector_base<std::pair<YAML::detail::node *, bool>, std::allocator<std::pair<YAML::detail::node *, bool>>>::_Vector_impl" = type { %"struct.std::_Vector_base<std::pair<YAML::detail::node *, bool>, std::allocator<std::pair<YAML::detail::node *, bool>>>::_Vector_impl_data" }
%"struct.std::_Vector_base<std::pair<YAML::detail::node *, bool>, std::allocator<std::pair<YAML::detail::node *, bool>>>::_Vector_impl_data" = type { ptr, ptr, ptr }

; Function Attrs: mustprogress nounwind uwtable
define linkonce_odr noundef nonnull align 8 dereferenceable(8) ptr @_ZNSt6vectorIPN4YAML6detail4nodeESaIS3_EEixEm(ptr noundef nonnull align 8 dereferenceable(24) %this, i64 noundef %__n) #1 comdat align 2 {
entry:
  %this.addr = alloca ptr, align 8
  %__n.addr = alloca i64, align 8
  store ptr %this, ptr %this.addr, align 8
  store i64 %__n, ptr %__n.addr, align 8
  %this1 = load ptr, ptr %this.addr, align 8
  %_M_impl = getelementptr inbounds %"struct.std::_Vector_base", ptr %this1, i32 0, i32 0
  %_M_start = getelementptr inbounds %"struct.std::_Vector_base<YAML::detail::node *, std::allocator<YAML::detail::node *>>::_Vector_impl_data", ptr %_M_impl, i32 0, i32 0
  %0 = load ptr, ptr %_M_start, align 8
  %1 = load i64, ptr %__n.addr, align 8
  %add.ptr = getelementptr inbounds ptr, ptr %0, i64 %1
  ret ptr %add.ptr
}

; Function Attrs: mustprogress uwtable
define void @_ZN4YAML11NodeBuilder7OnAliasERKNS_4MarkEm(ptr noundef nonnull align 8 dereferenceable(112) %this, ptr noundef nonnull align 4 dereferenceable(12) %0, i64 noundef %anchor) unnamed_addr #0 align 2 {
entry:
  %this.addr = alloca ptr, align 8
  %.addr = alloca ptr, align 8
  %anchor.addr = alloca i64, align 8
  %node = alloca ptr, align 8
  store ptr %this, ptr %this.addr, align 8
  store ptr %0, ptr %.addr, align 8
  store i64 %anchor, ptr %anchor.addr, align 8
  %this1 = load ptr, ptr %this.addr, align 8
  %m_anchors = getelementptr inbounds %"class.YAML::NodeBuilder", ptr %this1, i32 0, i32 4
  %1 = load i64, ptr %anchor.addr, align 8
  %call = call noundef nonnull align 8 dereferenceable(8) ptr @_ZNSt6vectorIPN4YAML6detail4nodeESaIS3_EEixEm(ptr noundef nonnull align 8 dereferenceable(24) %m_anchors, i64 noundef %1) #12
  %2 = load ptr, ptr %call, align 8
  store ptr %2, ptr %node, align 8
  %3 = load ptr, ptr %node, align 8
  call void @_ZN4YAML11NodeBuilder4PushERNS_6detail4nodeE(ptr noundef nonnull align 8 dereferenceable(112) %this1, ptr noundef nonnull align 8 dereferenceable(72) %3)
  call void @_ZN4YAML11NodeBuilder3PopEv(ptr noundef nonnull align 8 dereferenceable(112) %this1)
  ret void
}