; Function Attrs: mustprogress uwtable
define void @_ZN4YAML11NodeBuilder7OnAliasERKNS_4MarkEm(ptr nocapture noundef nonnull align 8 dereferenceable(112) %this, ptr nocapture nonnull readnone align 4 %0, i64 noundef %anchor) unnamed_addr #0 align 2 {
entry:
  %m_anchors = getelementptr inbounds i8, ptr %this, i64 56
  %1 = load ptr, ptr %m_anchors, align 8
  %add.ptr.i = getelementptr inbounds ptr, ptr %1, i64 %anchor
  %2 = load ptr, ptr %add.ptr.i, align 8
  tail call void @_ZN4YAML11NodeBuilder4PushERNS_6detail4nodeE(ptr noundef nonnull align 8 dereferenceable(112) %this, ptr noundef nonnull align 8 dereferenceable(72) %2)
  tail call void @_ZN4YAML11NodeBuilder3PopEv(ptr noundef nonnull align 8 dereferenceable(112) %this)
  ret void
}